target datalayout = "e-m:e-p270:32:32-p271:32:32-p272:64:64-i64:64-i128:128-f80:128-n8:16:32:64-S128"
target triple = "x86_64-pc-linux-gnu"

@.str.5 = private unnamed_addr constant [39 x i8] c"number%s has no integer representation\00", align 1

; Function Attrs: noreturn nounwind uwtable
define hidden void @luaG_tointerror(ptr noundef %0, ptr noundef %1, ptr noundef %2) #5 {
  %4 = alloca ptr, align 8
  %5 = alloca ptr, align 8
  %6 = alloca ptr, align 8
  %7 = alloca i64, align 8
  store ptr %0, ptr %4, align 8, !tbaa !30
  store ptr %1, ptr %5, align 8, !tbaa !64
  store ptr %2, ptr %6, align 8, !tbaa !64
  call void @llvm.lifetime.start.p0(i64 8, ptr %7) #8
  %8 = load ptr, ptr %5, align 8, !tbaa !64
  %9 = call i32 @luaV_tointegerns(ptr noundef %8, ptr noundef %7, i32 noundef 0)
  %10 = icmp ne i32 %9, 0
  br i1 %10, label %13, label %11

11:                                               ; preds = %3
  %12 = load ptr, ptr %5, align 8, !tbaa !64
  store ptr %12, ptr %6, align 8, !tbaa !64
  br label %13

13:                                               ; preds = %11, %3
  %14 = load ptr, ptr %4, align 8, !tbaa !30
  %15 = load ptr, ptr %4, align 8, !tbaa !30
  %16 = load ptr, ptr %6, align 8, !tbaa !64
  %17 = call ptr @varinfo(ptr noundef %15, ptr noundef %16)
  call void (ptr, ptr, ...) @luaG_runerror(ptr noundef %14, ptr noundef @.str.5, ptr noundef %17) #10
  unreachable
}