; Function Attrs: noreturn nounwind uwtable
define hidden void @luaG_tointerror(ptr noundef %0, ptr noundef %1, ptr noundef captures(address) %2) local_unnamed_addr #9 {
  %4 = alloca i64, align 8
  call void @llvm.lifetime.start.p0(i64 8, ptr nonnull %4) #13
  %5 = call i32 @luaV_tointegerns(ptr noundef %1, ptr noundef nonnull %4, i32 noundef 0) #13
  %.not = icmp eq i32 %5, 0
  %spec.select = select i1 %.not, ptr %1, ptr %2
  %6 = call fastcc ptr @varinfo(ptr noundef %0, ptr noundef %spec.select)
  call void (ptr, ptr, ...) @luaG_runerror(ptr noundef %0, ptr noundef nonnull @.str.5, ptr noundef %6) #15
  unreachable
}